target datalayout = "e-m:e-p270:32:32-p271:32:32-p272:64:64-i64:64-i128:128-f80:128-n8:16:32:64-S128"
target triple = "x86_64-pc-linux-gnu"

%struct.st_engine_table = type { %struct.lhash_st_ENGINE_PILE }
%struct.lhash_st_ENGINE_PILE = type { %union.lh_ENGINE_PILE_dummy }
%union.lh_ENGINE_PILE_dummy = type { ptr }

@global_engine_lock = external global ptr, align 8

; Function Attrs: inlinehint nounwind uwtable
define internal ptr @lh_ENGINE_PILE_new(ptr noundef %0, ptr noundef %1) #3 {
  %3 = alloca ptr, align 8
  %4 = alloca ptr, align 8
  store ptr %0, ptr %3, align 8, !tbaa !10
  store ptr %1, ptr %4, align 8, !tbaa !10
  %5 = load ptr, ptr %3, align 8, !tbaa !10
  %6 = load ptr, ptr %4, align 8, !tbaa !10
  %7 = call ptr @OPENSSL_LH_new(ptr noundef %5, ptr noundef %6)
  %8 = call ptr @OPENSSL_LH_set_thunks(ptr noundef %7, ptr noundef @lh_ENGINE_PILE_hfn_thunk, ptr noundef @lh_ENGINE_PILE_cfn_thunk, ptr noundef @lh_ENGINE_PILE_doall_thunk, ptr noundef @lh_ENGINE_PILE_doall_arg_thunk)
  ret ptr %8
}

; Function Attrs: inlinehint nounwind uwtable
define internal void @lh_ENGINE_PILE_doall_ENGINE(ptr noundef %0, ptr noundef %1, ptr noundef %2) #3 {
  %4 = alloca ptr, align 8
  %5 = alloca ptr, align 8
  %6 = alloca ptr, align 8
  store ptr %0, ptr %4, align 8, !tbaa !27
  store ptr %1, ptr %5, align 8, !tbaa !10
  store ptr %2, ptr %6, align 8, !tbaa !11
  %7 = load ptr, ptr %4, align 8, !tbaa !27
  %8 = load ptr, ptr %5, align 8, !tbaa !10
  %9 = load ptr, ptr %6, align 8, !tbaa !11
  call void @OPENSSL_LH_doall_arg_thunk(ptr noundef %7, ptr noundef @lh_ENGINE_PILE_doall_ENGINE_thunk, ptr noundef %8, ptr noundef %9)
  ret void
}

; Function Attrs: nounwind uwtable
define internal i32 @int_table_check(ptr noundef %0, i32 noundef %1) #0 {
  %3 = alloca i32, align 4
  %4 = alloca ptr, align 8
  %5 = alloca i32, align 4
  %6 = alloca ptr, align 8
  %7 = alloca i32, align 4
  store ptr %0, ptr %4, align 8, !tbaa !7
  store i32 %1, ptr %5, align 4, !tbaa !3
  call void @llvm.lifetime.start.p0(i64 8, ptr %6) #4
  %8 = load ptr, ptr %4, align 8, !tbaa !7
  %9 = load ptr, ptr %8, align 8, !tbaa !15
  %10 = icmp ne ptr %9, null
  br i1 %10, label %11, label %12

11:                                               ; preds = %2
  store i32 1, ptr %3, align 4
  store i32 1, ptr %7, align 4
  br label %23

12:                                               ; preds = %2
  %13 = load i32, ptr %5, align 4, !tbaa !3
  %14 = icmp ne i32 %13, 0
  br i1 %14, label %16, label %15

15:                                               ; preds = %12
  store i32 0, ptr %3, align 4
  store i32 1, ptr %7, align 4
  br label %23

16:                                               ; preds = %12
  %17 = call ptr @lh_ENGINE_PILE_new(ptr noundef @engine_pile_hash, ptr noundef @engine_pile_cmp)
  store ptr %17, ptr %6, align 8, !tbaa !27
  %18 = icmp eq ptr %17, null
  br i1 %18, label %19, label %20

19:                                               ; preds = %16
  store i32 0, ptr %3, align 4
  store i32 1, ptr %7, align 4
  br label %23

20:                                               ; preds = %16
  %21 = load ptr, ptr %6, align 8, !tbaa !27
  %22 = load ptr, ptr %4, align 8, !tbaa !7
  store ptr %21, ptr %22, align 8, !tbaa !15
  store i32 1, ptr %3, align 4
  store i32 1, ptr %7, align 4
  br label %23

23:                                               ; preds = %20, %19, %15, %11
  call void @llvm.lifetime.end.p0(i64 8, ptr %6) #4
  %24 = load i32, ptr %3, align 4
  ret i32 %24
}

; Function Attrs: nounwind uwtable
define void @engine_table_unregister(ptr noundef %0, ptr noundef %1) #0 {
  %3 = alloca ptr, align 8
  %4 = alloca ptr, align 8
  store ptr %0, ptr %3, align 8, !tbaa !7
  store ptr %1, ptr %4, align 8, !tbaa !11
  %5 = load ptr, ptr @global_engine_lock, align 8, !tbaa !10
  %6 = call i32 @CRYPTO_THREAD_write_lock(ptr noundef %5)
  %7 = icmp ne i32 %6, 0
  br i1 %7, label %9, label %8

8:                                                ; preds = %2
  br label %21

9:                                                ; preds = %2
  %10 = load ptr, ptr %3, align 8, !tbaa !7
  %11 = call i32 @int_table_check(ptr noundef %10, i32 noundef 0)
  %12 = icmp ne i32 %11, 0
  br i1 %12, label %13, label %18

13:                                               ; preds = %9
  %14 = load ptr, ptr %3, align 8, !tbaa !7
  %15 = load ptr, ptr %14, align 8, !tbaa !15
  %16 = getelementptr inbounds nuw %struct.st_engine_table, ptr %15, i32 0, i32 0
  %17 = load ptr, ptr %4, align 8, !tbaa !11
  call void @lh_ENGINE_PILE_doall_ENGINE(ptr noundef %16, ptr noundef @int_unregister_cb, ptr noundef %17)
  br label %18

18:                                               ; preds = %13, %9
  %19 = load ptr, ptr @global_engine_lock, align 8, !tbaa !10
  %20 = call i32 @CRYPTO_THREAD_unlock(ptr noundef %19)
  br label %21

21:                                               ; preds = %18, %8
  ret void
}