; Function Attrs: nounwind uwtable
define void @engine_table_unregister(ptr noundef readonly captures(none) %0, ptr noundef %1) local_unnamed_addr #2 {
  %3 = load ptr, ptr @global_engine_lock, align 8, !tbaa !7
  %4 = tail call i32 @CRYPTO_THREAD_write_lock(ptr noundef %3) #7
  %.not = icmp eq i32 %4, 0
  br i1 %.not, label %9, label %5

5:                                                ; preds = %2
  %6 = load ptr, ptr %0, align 8, !tbaa !9
  %.not.i = icmp eq ptr %6, null
  br i1 %.not.i, label %int_table_check.exit.thread, label %int_table_check.exit

int_table_check.exit:                             ; preds = %5
  tail call void @OPENSSL_LH_doall_arg_thunk(ptr noundef nonnull %6, ptr noundef nonnull @lh_ENGINE_PILE_doall_ENGINE_thunk, ptr noundef nonnull @int_unregister_cb, ptr noundef %1) #7
  br label %int_table_check.exit.thread

int_table_check.exit.thread:                      ; preds = %5, %int_table_check.exit
  %7 = load ptr, ptr @global_engine_lock, align 8, !tbaa !7
  %8 = tail call i32 @CRYPTO_THREAD_unlock(ptr noundef %7) #7
  br label %9

9:                                                ; preds = %2, %int_table_check.exit.thread
  ret void
}